target datalayout = "e-m:e-p270:32:32-p271:32:32-p272:64:64-i64:64-i128:128-f80:128-n8:16:32:64-S128"
target triple = "x86_64-pc-linux-gnu"

%struct.X509_VERIFY_PARAM_st = type { ptr, i64, i64, i64, i32, i32, i32, ptr, ptr }

; Function Attrs: nounwind uwtable
define hidden ptr @X509_VERIFY_PARAM_new() #0 {
  %1 = alloca ptr, align 8
  %2 = alloca ptr, align 8
  %3 = alloca ptr, align 8
  %4 = alloca i32, align 4
  call void @llvm.lifetime.start.p0(i64 8, ptr %2) #7
  call void @llvm.lifetime.start.p0(i64 8, ptr %3) #7
  %5 = call noalias ptr @malloc(i64 noundef 64) #8
  store ptr %5, ptr %2, align 8, !tbaa !6
  %6 = load ptr, ptr %2, align 8, !tbaa !6
  %7 = icmp ne ptr %6, null
  br i1 %7, label %9, label %8

8:                                                ; preds = %0
  store ptr null, ptr %1, align 8
  store i32 1, ptr %4, align 4
  br label %23

9:                                                ; preds = %0
  %10 = call noalias ptr @malloc(i64 noundef 56) #8
  store ptr %10, ptr %3, align 8, !tbaa !11
  %11 = load ptr, ptr %3, align 8, !tbaa !11
  %12 = icmp ne ptr %11, null
  br i1 %12, label %15, label %13

13:                                               ; preds = %9
  %14 = load ptr, ptr %2, align 8, !tbaa !6
  call void @free(ptr noundef %14) #7
  store ptr null, ptr %1, align 8
  store i32 1, ptr %4, align 4
  br label %23

15:                                               ; preds = %9
  %16 = load ptr, ptr %2, align 8, !tbaa !6
  call void @llvm.memset.p0.i64(ptr align 8 %16, i8 0, i64 64, i1 false)
  %17 = load ptr, ptr %3, align 8, !tbaa !11
  call void @llvm.memset.p0.i64(ptr align 8 %17, i8 0, i64 56, i1 false)
  %18 = load ptr, ptr %3, align 8, !tbaa !11
  %19 = load ptr, ptr %2, align 8, !tbaa !6
  %20 = getelementptr inbounds nuw %struct.X509_VERIFY_PARAM_st, ptr %19, i32 0, i32 8
  store ptr %18, ptr %20, align 8, !tbaa !13
  %21 = load ptr, ptr %2, align 8, !tbaa !6
  call void @x509_verify_param_zero(ptr noundef %21)
  %22 = load ptr, ptr %2, align 8, !tbaa !6
  store ptr %22, ptr %1, align 8
  store i32 1, ptr %4, align 4
  br label %23

23:                                               ; preds = %15, %13, %8
  call void @llvm.lifetime.end.p0(i64 8, ptr %3) #7
  call void @llvm.lifetime.end.p0(i64 8, ptr %2) #7
  %24 = load ptr, ptr %1, align 8
  ret ptr %24
}