; Function Attrs: nounwind uwtable
define hidden noalias noundef ptr @X509_VERIFY_PARAM_new() local_unnamed_addr #0 {
  %1 = tail call noalias dereferenceable_or_null(64) ptr @malloc(i64 noundef 64) #15
  %.not = icmp eq ptr %1, null
  br i1 %.not, label %7, label %2

2:                                                ; preds = %0
  %calloc = tail call dereferenceable_or_null(56) ptr @calloc(i64 1, i64 56)
  %.not12 = icmp eq ptr %calloc, null
  br i1 %.not12, label %3, label %4

3:                                                ; preds = %2
  tail call void @free(ptr noundef nonnull %1) #16
  br label %7

4:                                                ; preds = %2
  %5 = getelementptr inbounds nuw i8, ptr %1, i64 8
  tail call void @llvm.memset.p0.i64(ptr noundef nonnull align 8 dereferenceable(64) %5, i8 0, i64 48, i1 false)
  %6 = getelementptr inbounds nuw i8, ptr %1, i64 56
  store ptr %calloc, ptr %6, align 8, !tbaa !6
  tail call fastcc void @x509_verify_param_zero(ptr noundef %1)
  br label %7

7:                                                ; preds = %0, %4, %3
  %.0 = phi ptr [ %1, %4 ], [ null, %3 ], [ null, %0 ]
  ret ptr %.0
}